target datalayout = "e-m:e-p270:32:32-p271:32:32-p272:64:64-i64:64-i128:128-f80:128-n8:16:32:64-S128"
target triple = "x86_64-pc-linux-gnu"

%struct.AVChannelLayout = type { i32, i32, %union.anon.1, ptr }
%union.anon.1 = type { i64 }
%struct.AVFilterContext = type { ptr, ptr, ptr, ptr, ptr, i32, ptr, ptr, i32, ptr, ptr, i32, i32, ptr, ptr, ptr, ptr, i32, ptr, i32, i32 }
%struct.StereoWidenContext = type { ptr, float, float, float, float, ptr, ptr, i32 }
%struct.AVFilterLink = type { ptr, ptr, ptr, ptr, i32, i32, i32, i32, %struct.AVRational, i32, i32, i32, %struct.AVChannelLayout, %struct.AVRational, ptr, i32, %struct.AVFilterFormatsConfig, %struct.AVFilterFormatsConfig }
%struct.AVRational = type { i32, i32 }
%struct.AVFilterFormatsConfig = type { ptr, ptr, ptr, ptr, ptr }

; Function Attrs: nounwind uwtable
define internal i32 @config_input(ptr noundef %0) #1 {
  %2 = alloca i32, align 4
  %3 = alloca ptr, align 8
  %4 = alloca ptr, align 8
  %5 = alloca ptr, align 8
  %6 = alloca i32, align 4
  store ptr %0, ptr %3, align 8, !tbaa !27
  call void @llvm.lifetime.start.p0(i64 8, ptr %4) #5
  %7 = load ptr, ptr %3, align 8, !tbaa !27
  %8 = getelementptr inbounds nuw %struct.AVFilterLink, ptr %7, i32 0, i32 2
  %9 = load ptr, ptr %8, align 8, !tbaa !31
  store ptr %9, ptr %4, align 8, !tbaa !4
  call void @llvm.lifetime.start.p0(i64 8, ptr %5) #5
  %10 = load ptr, ptr %4, align 8, !tbaa !4
  %11 = getelementptr inbounds nuw %struct.AVFilterContext, ptr %10, i32 0, i32 9
  %12 = load ptr, ptr %11, align 8, !tbaa !9
  store ptr %12, ptr %5, align 8, !tbaa !22
  %13 = load ptr, ptr %5, align 8, !tbaa !22
  %14 = getelementptr inbounds nuw %struct.StereoWidenContext, ptr %13, i32 0, i32 1
  %15 = load float, ptr %14, align 8, !tbaa !61
  %16 = load ptr, ptr %3, align 8, !tbaa !27
  %17 = getelementptr inbounds nuw %struct.AVFilterLink, ptr %16, i32 0, i32 11
  %18 = load i32, ptr %17, align 8, !tbaa !62
  %19 = sitofp i32 %18 to float
  %20 = fmul nsz float %15, %19
  %21 = fdiv nsz float %20, 1.000000e+03
  %22 = call i64 @llvm.lrint.i64.f32(float %21)
  %23 = trunc i64 %22 to i32
  %24 = load ptr, ptr %5, align 8, !tbaa !22
  %25 = getelementptr inbounds nuw %struct.StereoWidenContext, ptr %24, i32 0, i32 7
  store i32 %23, ptr %25, align 8, !tbaa !57
  %26 = load ptr, ptr %5, align 8, !tbaa !22
  %27 = getelementptr inbounds nuw %struct.StereoWidenContext, ptr %26, i32 0, i32 7
  %28 = load i32, ptr %27, align 8, !tbaa !57
  %29 = mul nsw i32 %28, 2
  store i32 %29, ptr %27, align 8, !tbaa !57
  %30 = load ptr, ptr %5, align 8, !tbaa !22
  %31 = getelementptr inbounds nuw %struct.StereoWidenContext, ptr %30, i32 0, i32 7
  %32 = load i32, ptr %31, align 8, !tbaa !57
  %33 = icmp eq i32 %32, 0
  br i1 %33, label %34, label %35

34:                                               ; preds = %1
  store i32 -22, ptr %2, align 4
  store i32 1, ptr %6, align 4
  br label %54

35:                                               ; preds = %1
  %36 = load ptr, ptr %5, align 8, !tbaa !22
  %37 = getelementptr inbounds nuw %struct.StereoWidenContext, ptr %36, i32 0, i32 7
  %38 = load i32, ptr %37, align 8, !tbaa !57
  %39 = sext i32 %38 to i64
  %40 = call noalias ptr @av_calloc(i64 noundef %39, i64 noundef 4)
  %41 = load ptr, ptr %5, align 8, !tbaa !22
  %42 = getelementptr inbounds nuw %struct.StereoWidenContext, ptr %41, i32 0, i32 5
  store ptr %40, ptr %42, align 8, !tbaa !56
  %43 = load ptr, ptr %5, align 8, !tbaa !22
  %44 = getelementptr inbounds nuw %struct.StereoWidenContext, ptr %43, i32 0, i32 5
  %45 = load ptr, ptr %44, align 8, !tbaa !56
  %46 = icmp ne ptr %45, null
  br i1 %46, label %48, label %47

47:                                               ; preds = %35
  store i32 -12, ptr %2, align 4
  store i32 1, ptr %6, align 4
  br label %54

48:                                               ; preds = %35
  %49 = load ptr, ptr %5, align 8, !tbaa !22
  %50 = getelementptr inbounds nuw %struct.StereoWidenContext, ptr %49, i32 0, i32 5
  %51 = load ptr, ptr %50, align 8, !tbaa !56
  %52 = load ptr, ptr %5, align 8, !tbaa !22
  %53 = getelementptr inbounds nuw %struct.StereoWidenContext, ptr %52, i32 0, i32 6
  store ptr %51, ptr %53, align 8, !tbaa !55
  store i32 0, ptr %2, align 4
  store i32 1, ptr %6, align 4
  br label %54

54:                                               ; preds = %48, %47, %34
  call void @llvm.lifetime.end.p0(i64 8, ptr %5) #5
  call void @llvm.lifetime.end.p0(i64 8, ptr %4) #5
  %55 = load i32, ptr %2, align 4
  ret i32 %55
}