; Function Attrs: nounwind uwtable
define internal range(i32 -22, 1) i32 @config_input(ptr noundef readonly captures(none) %0) #1 {
  %2 = getelementptr inbounds nuw i8, ptr %0, i64 16
  %3 = load ptr, ptr %2, align 8, !tbaa !22
  %4 = getelementptr inbounds nuw i8, ptr %3, i64 72
  %5 = load ptr, ptr %4, align 8, !tbaa !4
  %6 = getelementptr inbounds nuw i8, ptr %5, i64 8
  %7 = load float, ptr %6, align 8, !tbaa !54
  %8 = getelementptr inbounds nuw i8, ptr %0, i64 64
  %9 = load i32, ptr %8, align 8, !tbaa !55
  %10 = sitofp i32 %9 to float
  %11 = fmul nsz float %7, %10
  %12 = fdiv nsz float %11, 1.000000e+03
  %13 = tail call i64 @llvm.lrint.i64.f32(float %12)
  %14 = trunc i64 %13 to i32
  %15 = getelementptr inbounds nuw i8, ptr %5, i64 40
  %16 = shl nsw i32 %14, 1
  store i32 %16, ptr %15, align 8, !tbaa !48
  %17 = icmp eq i32 %14, 0
  br i1 %17, label %24, label %18

18:                                               ; preds = %1
  %19 = sext i32 %16 to i64
  %20 = tail call noalias ptr @av_calloc(i64 noundef %19, i64 noundef 4) #5
  %21 = getelementptr inbounds nuw i8, ptr %5, i64 24
  store ptr %20, ptr %21, align 8, !tbaa !47
  %.not = icmp eq ptr %20, null
  br i1 %.not, label %24, label %22

22:                                               ; preds = %18
  %23 = getelementptr inbounds nuw i8, ptr %5, i64 32
  store ptr %20, ptr %23, align 8, !tbaa !50
  br label %24

24:                                               ; preds = %18, %1, %22
  %.0 = phi i32 [ 0, %22 ], [ -22, %1 ], [ -12, %18 ]
  ret i32 %.0
}